; Function Attrs: mustprogress uwtable
define i8 @_ZN3zmq22socks_choice_decoder_t6decodeEv(ptr noundef nonnull readonly align 8 captures(none) dereferenceable(16) %0) local_unnamed_addr #3 align 2 {
  %2 = alloca %"struct.zmq::socks_choice_t", align 1
  %3 = getelementptr inbounds nuw i8, ptr %0, i64 8
  %4 = load i64, ptr %3, align 8, !tbaa !17
  %5 = icmp eq i64 %4, 2
  br i1 %5, label %11, label %6, !prof !23

6:                                                ; preds = %1
  %7 = load ptr, ptr @stderr, align 8, !tbaa !20
  %8 = tail call i32 (ptr, ptr, ...) @fprintf(ptr noundef %7, ptr noundef nonnull @.str, ptr noundef nonnull @.str.3, ptr noundef nonnull @.str.2, i32 noundef 94) #13
  %9 = load ptr, ptr @stderr, align 8, !tbaa !20
  %10 = tail call i32 @fflush(ptr noundef %9)
  tail call void @_ZN3zmq9zmq_abortEPKc(ptr noundef nonnull @.str.3)
  br label %11

11:                                               ; preds = %1, %6
  %12 = getelementptr inbounds nuw i8, ptr %0, i64 1
  %13 = load i8, ptr %12, align 1, !tbaa !8
  call void @_ZN3zmq14socks_choice_tC1Eh(ptr noundef nonnull align 1 dereferenceable(1) %2, i8 noundef zeroext %13)
  %14 = load i8, ptr %2, align 1
  ret i8 %14
}